ARM GAS  C:\Users\narking\AppData\Local\Temp\cct2fxkc.s 			page 1


   1              		.syntax unified
   2              		.cpu cortex-m3
   3              		.fpu softvfp
   4              		.eabi_attribute 20, 1
   5              		.eabi_attribute 21, 1
   6              		.eabi_attribute 23, 3
   7              		.eabi_attribute 24, 1
   8              		.eabi_attribute 25, 1
   9              		.eabi_attribute 26, 1
  10              		.eabi_attribute 30, 1
  11              		.eabi_attribute 34, 1
  12              		.eabi_attribute 18, 4
  13              		.thumb
  14              		.syntax unified
  15              		.file	"main.c"
  16              		.text
  17              	.Ltext0:
  18              		.cfi_sections	.debug_frame
  19              		.section	.text.MyISR,"ax",%progbits
  20              		.align	2
  21              		.global	MyISR
  22              		.thumb
  23              		.thumb_func
  24              		.type	MyISR, %function
  25              	MyISR:
  26              	.LFB64:
  27              		.file 1 "main.c"
   1:main.c        **** /* ========================================
   2:main.c        ****  *
   3:main.c        ****  * Copyright YOUR COMPANY, THE YEAR
   4:main.c        ****  * All Rights Reserved
   5:main.c        ****  * UNPUBLISHED, LICENSED SOFTWARE.
   6:main.c        ****  *
   7:main.c        ****  * CONFIDENTIAL AND PROPRIETARY INFORMATION
   8:main.c        ****  * WHICH IS THE PROPERTY OF your company.
   9:main.c        ****  *
  10:main.c        ****  * ========================================
  11:main.c        **** */
  12:main.c        **** #include "project.h"
  13:main.c        **** #include <stdio.h>
  14:main.c        **** 
  15:main.c        **** uint16_t timerGlobal = 0;
  16:main.c        **** uint16_t intFlag = 0;
  17:main.c        **** 
  18:main.c        **** CY_ISR_PROTO(MyISR);
  19:main.c        **** 
  20:main.c        **** CY_ISR(MyISR)
  21:main.c        **** {
  28              		.loc 1 21 0
  29              		.cfi_startproc
  30              		@ args = 0, pretend = 0, frame = 0
  31              		@ frame_needed = 0, uses_anonymous_args = 0
  32 0000 08B5     		push	{r3, lr}
  33              		.cfi_def_cfa_offset 8
  34              		.cfi_offset 3, -8
  35              		.cfi_offset 14, -4
  22:main.c        ****  /* ISR Code here */
ARM GAS  C:\Users\narking\AppData\Local\Temp\cct2fxkc.s 			page 2


  23:main.c        ****     timerGlobal = Timer_1_ReadCounter();
  36              		.loc 1 23 0
  37 0002 FFF7FEFF 		bl	Timer_1_ReadCounter
  38              	.LVL0:
  39 0006 024B     		ldr	r3, .L3
  40 0008 1880     		strh	r0, [r3]	@ movhi
  24:main.c        ****     intFlag = 1;
  41              		.loc 1 24 0
  42 000a 0122     		movs	r2, #1
  43 000c 5A80     		strh	r2, [r3, #2]	@ movhi
  44 000e 08BD     		pop	{r3, pc}
  45              	.L4:
  46              		.align	2
  47              	.L3:
  48 0010 00000000 		.word	.LANCHOR0
  49              		.cfi_endproc
  50              	.LFE64:
  51              		.size	MyISR, .-MyISR
  52              		.section	.text.main,"ax",%progbits
  53              		.align	2
  54              		.global	main
  55              		.thumb
  56              		.thumb_func
  57              		.type	main, %function
  58              	main:
  59              	.LFB65:
  25:main.c        **** }
  26:main.c        **** 
  27:main.c        **** 
  28:main.c        **** 
  29:main.c        **** 
  30:main.c        **** int main(void)
  31:main.c        **** {
  60              		.loc 1 31 0
  61              		.cfi_startproc
  62              		@ args = 0, pretend = 0, frame = 16
  63              		@ frame_needed = 0, uses_anonymous_args = 0
  64 0000 30B5     		push	{r4, r5, lr}
  65              		.cfi_def_cfa_offset 12
  66              		.cfi_offset 4, -12
  67              		.cfi_offset 5, -8
  68              		.cfi_offset 14, -4
  69 0002 85B0     		sub	sp, sp, #20
  70              		.cfi_def_cfa_offset 32
  32:main.c        ****     CyGlobalIntEnable; /* Enable global interrupts. */
  71              		.loc 1 32 0
  72              		.syntax unified
  73              	@ 32 "main.c" 1
  74 0004 62B6     		CPSIE   i
  75              	@ 0 "" 2
  33:main.c        **** 
  34:main.c        ****     /* Place your initialization/startup code here (e.g. MyInst_Start()) */
  35:main.c        **** 
  36:main.c        ****     isr_1_StartEx(MyISR);
  76              		.loc 1 36 0
  77              		.thumb
  78              		.syntax unified
ARM GAS  C:\Users\narking\AppData\Local\Temp\cct2fxkc.s 			page 3


  79 0006 2348     		ldr	r0, .L9
  80 0008 FFF7FEFF 		bl	isr_1_StartEx
  81              	.LVL1:
  37:main.c        ****     isr_1_Enable();
  82              		.loc 1 37 0
  83 000c FFF7FEFF 		bl	isr_1_Enable
  84              	.LVL2:
  38:main.c        ****     Timer_1_Start();
  85              		.loc 1 38 0
  86 0010 FFF7FEFF 		bl	Timer_1_Start
  87              	.LVL3:
  39:main.c        ****     Counter_1_Start();
  88              		.loc 1 39 0
  89 0014 FFF7FEFF 		bl	Counter_1_Start
  90              	.LVL4:
  40:main.c        ****     LCD_Char_1_Start();
  91              		.loc 1 40 0
  92 0018 FFF7FEFF 		bl	LCD_Char_1_Start
  93              	.LVL5:
  41:main.c        ****     LCD_Char_1_DisplayOn();
  94              		.loc 1 41 0
  95 001c 0C20     		movs	r0, #12
  96 001e FFF7FEFF 		bl	LCD_Char_1_WriteControl
  97              	.LVL6:
  42:main.c        ****     LCD_Char_1_Init();
  98              		.loc 1 42 0
  99 0022 FFF7FEFF 		bl	LCD_Char_1_Init
 100              	.LVL7:
  43:main.c        ****     LCD_Char_1_Enable();
 101              		.loc 1 43 0
 102 0026 FFF7FEFF 		bl	LCD_Char_1_Enable
 103              	.LVL8:
  44:main.c        ****     LCD_Char_1_IsReady();
 104              		.loc 1 44 0
 105 002a FFF7FEFF 		bl	LCD_Char_1_IsReady
 106              	.LVL9:
  45:main.c        ****     LCD_Char_1_Position(0,0); 
 107              		.loc 1 45 0
 108 002e 0021     		movs	r1, #0
 109 0030 0846     		mov	r0, r1
 110 0032 FFF7FEFF 		bl	LCD_Char_1_Position
 111              	.LVL10:
  46:main.c        ****     
  47:main.c        ****     //Initial reset to start counter
  48:main.c        ****     Control_Reset_Write (1);   
 112              		.loc 1 48 0
 113 0036 0120     		movs	r0, #1
 114 0038 FFF7FEFF 		bl	Control_Reset_Write
 115              	.LVL11:
  49:main.c        ****     
  50:main.c        ****     char print[12];
  51:main.c        ****     //uint16_t capture = 0;
  52:main.c        ****     
  53:main.c        ****     int i = 0;
 116              		.loc 1 53 0
 117 003c 0024     		movs	r4, #0
 118              	.LVL12:
ARM GAS  C:\Users\narking\AppData\Local\Temp\cct2fxkc.s 			page 4


 119              	.L7:
  54:main.c        ****     
  55:main.c        ****     for(;;)
  56:main.c        ****     {
  57:main.c        ****         /* Place your application code here. */
  58:main.c        ****         i++;
 120              		.loc 1 58 0
 121 003e 0134     		adds	r4, r4, #1
 122              	.LVL13:
  59:main.c        ****         Control_Reg_1_Write (1);
 123              		.loc 1 59 0
 124 0040 0120     		movs	r0, #1
 125 0042 FFF7FEFF 		bl	Control_Reg_1_Write
 126              	.LVL14:
 127              	.L6:
  60:main.c        ****         
  61:main.c        ****         while(intFlag == 0){};        
 128              		.loc 1 61 0 discriminator 1
 129 0046 144B     		ldr	r3, .L9+4
 130 0048 5B88     		ldrh	r3, [r3, #2]
 131 004a 002B     		cmp	r3, #0
 132 004c FBD0     		beq	.L6
  62:main.c        ****         
  63:main.c        ****         sprintf(print,"timer = %u, %i", timerGlobal, i);
 133              		.loc 1 63 0
 134 004e 124D     		ldr	r5, .L9+4
 135 0050 2346     		mov	r3, r4
 136 0052 2A88     		ldrh	r2, [r5]
 137 0054 1149     		ldr	r1, .L9+8
 138 0056 01A8     		add	r0, sp, #4
 139 0058 FFF7FEFF 		bl	sprintf
 140              	.LVL15:
  64:main.c        ****         
  65:main.c        ****         // Print count to LCD       
  66:main.c        ****         LCD_Char_1_ClearDisplay();
 141              		.loc 1 66 0
 142 005c 0120     		movs	r0, #1
 143 005e FFF7FEFF 		bl	LCD_Char_1_WriteControl
 144              	.LVL16:
  67:main.c        ****         LCD_Char_1_IsReady();
 145              		.loc 1 67 0
 146 0062 FFF7FEFF 		bl	LCD_Char_1_IsReady
 147              	.LVL17:
  68:main.c        ****         LCD_Char_1_Position(0,0);
 148              		.loc 1 68 0
 149 0066 0021     		movs	r1, #0
 150 0068 0846     		mov	r0, r1
 151 006a FFF7FEFF 		bl	LCD_Char_1_Position
 152              	.LVL18:
  69:main.c        ****         LCD_Char_1_PrintString(print);
 153              		.loc 1 69 0
 154 006e 01A8     		add	r0, sp, #4
 155 0070 FFF7FEFF 		bl	LCD_Char_1_PrintString
 156              	.LVL19:
  70:main.c        ****         
  71:main.c        ****         Timer_1_WriteCounter(0);
 157              		.loc 1 71 0
ARM GAS  C:\Users\narking\AppData\Local\Temp\cct2fxkc.s 			page 5


 158 0074 0020     		movs	r0, #0
 159 0076 FFF7FEFF 		bl	Timer_1_WriteCounter
 160              	.LVL20:
  72:main.c        ****         Control_Timer_Reset_Write (1);  
 161              		.loc 1 72 0
 162 007a 0120     		movs	r0, #1
 163 007c FFF7FEFF 		bl	Control_Timer_Reset_Write
 164              	.LVL21:
  73:main.c        ****         Control_Reset_Write (1);   
 165              		.loc 1 73 0
 166 0080 0120     		movs	r0, #1
 167 0082 FFF7FEFF 		bl	Control_Reset_Write
 168              	.LVL22:
  74:main.c        ****         
  75:main.c        ****         intFlag = 0;
 169              		.loc 1 75 0
 170 0086 0023     		movs	r3, #0
 171 0088 6B80     		strh	r3, [r5, #2]	@ movhi
  76:main.c        ****         
  77:main.c        ****         CyDelay(200u);
 172              		.loc 1 77 0
 173 008a C820     		movs	r0, #200
 174 008c FFF7FEFF 		bl	CyDelay
 175              	.LVL23:
  78:main.c        ****         
  79:main.c        ****         
  80:main.c        ****     }
 176              		.loc 1 80 0
 177 0090 D5E7     		b	.L7
 178              	.L10:
 179 0092 00BF     		.align	2
 180              	.L9:
 181 0094 00000000 		.word	MyISR
 182 0098 00000000 		.word	.LANCHOR0
 183 009c 00000000 		.word	.LC0
 184              		.cfi_endproc
 185              	.LFE65:
 186              		.size	main, .-main
 187              		.global	intFlag
 188              		.global	timerGlobal
 189              		.section	.rodata.str1.4,"aMS",%progbits,1
 190              		.align	2
 191              	.LC0:
 192 0000 74696D65 		.ascii	"timer = %u, %i\000"
 192      72203D20 
 192      25752C20 
 192      256900
 193              		.bss
 194              		.align	1
 195              		.set	.LANCHOR0,. + 0
 196              		.type	timerGlobal, %object
 197              		.size	timerGlobal, 2
 198              	timerGlobal:
 199 0000 0000     		.space	2
 200              		.type	intFlag, %object
 201              		.size	intFlag, 2
 202              	intFlag:
ARM GAS  C:\Users\narking\AppData\Local\Temp\cct2fxkc.s 			page 6


 203 0002 0000     		.space	2
 204              		.text
 205              	.Letext0:
 206              		.file 2 "c:\\program files (x86)\\cypress\\psoc creator\\4.2\\psoc creator\\import\\gnu\\arm\\5.4.
 207              		.file 3 "c:\\program files (x86)\\cypress\\psoc creator\\4.2\\psoc creator\\import\\gnu\\arm\\5.4.
 208              		.file 4 "Generated_Source\\PSoC5/core_cm3.h"
 209              		.file 5 "Generated_Source\\PSoC5/Timer_1.h"
 210              		.file 6 "Generated_Source\\PSoC5/isr_1.h"
 211              		.file 7 "Generated_Source\\PSoC5/Counter_1.h"
 212              		.file 8 "Generated_Source\\PSoC5/LCD_Char_1.h"
 213              		.file 9 "Generated_Source\\PSoC5/Control_Reset.h"
 214              		.file 10 "Generated_Source\\PSoC5/Control_Reg_1.h"
 215              		.file 11 "c:\\program files (x86)\\cypress\\psoc creator\\4.2\\psoc creator\\import\\gnu\\arm\\5.4
 216              		.file 12 "Generated_Source\\PSoC5/Control_Timer_Reset.h"
 217              		.file 13 "Generated_Source\\PSoC5/CyLib.h"