ARM GAS  C:\Users\narking\AppData\Local\Temp\ccTZXtqk.s 			page 1


   1              		.syntax unified
   2              		.cpu cortex-m3
   3              		.fpu softvfp
   4              		.eabi_attribute 20, 1
   5              		.eabi_attribute 21, 1
   6              		.eabi_attribute 23, 3
   7              		.eabi_attribute 24, 1
   8              		.eabi_attribute 25, 1
   9              		.eabi_attribute 26, 1
  10              		.eabi_attribute 30, 1
  11              		.eabi_attribute 34, 1
  12              		.eabi_attribute 18, 4
  13              		.thumb
  14              		.syntax unified
  15              		.file	"main.c"
  16              		.text
  17              	.Ltext0:
  18              		.cfi_sections	.debug_frame
  19              		.section	.text.MyISR,"ax",%progbits
  20              		.align	2
  21              		.global	MyISR
  22              		.thumb
  23              		.thumb_func
  24              		.type	MyISR, %function
  25              	MyISR:
  26              	.LFB64:
  27              		.file 1 "main.c"
   1:main.c        **** /* ========================================
   2:main.c        ****  *
   3:main.c        ****  * Copyright YOUR COMPANY, THE YEAR
   4:main.c        ****  * All Rights Reserved
   5:main.c        ****  * UNPUBLISHED, LICENSED SOFTWARE.
   6:main.c        ****  *
   7:main.c        ****  * CONFIDENTIAL AND PROPRIETARY INFORMATION
   8:main.c        ****  * WHICH IS THE PROPERTY OF your company.
   9:main.c        ****  *
  10:main.c        ****  * ========================================
  11:main.c        **** */
  12:main.c        **** #include "project.h"
  13:main.c        **** #include <stdio.h>
  14:main.c        **** #include "cyPm.h"
  15:main.c        **** 
  16:main.c        **** #define LED_CUTOFF 100
  17:main.c        **** 
  18:main.c        **** uint16_t timerGlobal = 0;
  19:main.c        **** uint16_t intFlag = 0;
  20:main.c        **** 
  21:main.c        **** CY_ISR_PROTO(MyISR);
  22:main.c        **** CY_ISR_PROTO(Snooze);
  23:main.c        **** 
  24:main.c        **** CY_ISR(MyISR)
  25:main.c        **** {
  28              		.loc 1 25 0
  29              		.cfi_startproc
  30              		@ args = 0, pretend = 0, frame = 0
  31              		@ frame_needed = 0, uses_anonymous_args = 0
  32 0000 08B5     		push	{r3, lr}
ARM GAS  C:\Users\narking\AppData\Local\Temp\ccTZXtqk.s 			page 2


  33              		.cfi_def_cfa_offset 8
  34              		.cfi_offset 3, -8
  35              		.cfi_offset 14, -4
  26:main.c        ****  /* ISR Code here */
  27:main.c        ****     timerGlobal = 65536 - Timer_1_ReadCounter();
  36              		.loc 1 27 0
  37 0002 FFF7FEFF 		bl	Timer_1_ReadCounter
  38              	.LVL0:
  39 0006 034B     		ldr	r3, .L3
  40 0008 4042     		negs	r0, r0
  41 000a 1880     		strh	r0, [r3]	@ movhi
  28:main.c        ****     intFlag = 1;
  42              		.loc 1 28 0
  43 000c 0122     		movs	r2, #1
  44 000e 5A80     		strh	r2, [r3, #2]	@ movhi
  45 0010 08BD     		pop	{r3, pc}
  46              	.L4:
  47 0012 00BF     		.align	2
  48              	.L3:
  49 0014 00000000 		.word	.LANCHOR0
  50              		.cfi_endproc
  51              	.LFE64:
  52              		.size	MyISR, .-MyISR
  53              		.section	.text.Snooze,"ax",%progbits
  54              		.align	2
  55              		.global	Snooze
  56              		.thumb
  57              		.thumb_func
  58              		.type	Snooze, %function
  59              	Snooze:
  60              	.LFB65:
  29:main.c        **** }
  30:main.c        **** 
  31:main.c        **** CY_ISR(Snooze)
  32:main.c        **** {
  61              		.loc 1 32 0
  62              		.cfi_startproc
  63              		@ args = 0, pretend = 0, frame = 0
  64              		@ frame_needed = 0, uses_anonymous_args = 0
  65 0000 08B5     		push	{r3, lr}
  66              		.cfi_def_cfa_offset 8
  67              		.cfi_offset 3, -8
  68              		.cfi_offset 14, -4
  33:main.c        ****  /* ISR Code here */
  34:main.c        ****         SleepTimer_1_GetStatus();
  69              		.loc 1 34 0
  70 0002 FFF7FEFF 		bl	SleepTimer_1_GetStatus
  71              	.LVL1:
  72 0006 08BD     		pop	{r3, pc}
  73              		.cfi_endproc
  74              	.LFE65:
  75              		.size	Snooze, .-Snooze
  76              		.section	.text.main,"ax",%progbits
  77              		.align	2
  78              		.global	main
  79              		.thumb
  80              		.thumb_func
ARM GAS  C:\Users\narking\AppData\Local\Temp\ccTZXtqk.s 			page 3


  81              		.type	main, %function
  82              	main:
  83              	.LFB66:
  35:main.c        **** 
  36:main.c        ****     
  37:main.c        **** }
  38:main.c        **** 
  39:main.c        **** int main(void)
  40:main.c        **** {
  84              		.loc 1 40 0
  85              		.cfi_startproc
  86              		@ args = 0, pretend = 0, frame = 16
  87              		@ frame_needed = 0, uses_anonymous_args = 0
  88 0000 30B5     		push	{r4, r5, lr}
  89              		.cfi_def_cfa_offset 12
  90              		.cfi_offset 4, -12
  91              		.cfi_offset 5, -8
  92              		.cfi_offset 14, -4
  93 0002 85B0     		sub	sp, sp, #20
  94              		.cfi_def_cfa_offset 32
  41:main.c        ****     CyGlobalIntEnable; /* Enable global interrupts. */
  95              		.loc 1 41 0
  96              		.syntax unified
  97              	@ 41 "main.c" 1
  98 0004 62B6     		CPSIE   i
  99              	@ 0 "" 2
  42:main.c        **** 
  43:main.c        ****     /* Place your initialization/startup code here (e.g. MyInst_Start()) */
  44:main.c        **** 
  45:main.c        ****     isr_1_StartEx(MyISR);
 100              		.loc 1 45 0
 101              		.thumb
 102              		.syntax unified
 103 0006 5248     		ldr	r0, .L12
 104 0008 FFF7FEFF 		bl	isr_1_StartEx
 105              	.LVL2:
  46:main.c        ****     isr_2_StartEx(Snooze);
 106              		.loc 1 46 0
 107 000c 5148     		ldr	r0, .L12+4
 108 000e FFF7FEFF 		bl	isr_2_StartEx
 109              	.LVL3:
  47:main.c        ****     SleepTimer_1_Start();
 110              		.loc 1 47 0
 111 0012 FFF7FEFF 		bl	SleepTimer_1_Start
 112              	.LVL4:
  48:main.c        ****     isr_1_Enable();
 113              		.loc 1 48 0
 114 0016 FFF7FEFF 		bl	isr_1_Enable
 115              	.LVL5:
  49:main.c        ****     Timer_1_Start();
 116              		.loc 1 49 0
 117 001a FFF7FEFF 		bl	Timer_1_Start
 118              	.LVL6:
  50:main.c        ****     Counter_1_Start();
 119              		.loc 1 50 0
 120 001e FFF7FEFF 		bl	Counter_1_Start
 121              	.LVL7:
ARM GAS  C:\Users\narking\AppData\Local\Temp\ccTZXtqk.s 			page 4


  51:main.c        ****     Counter_2_Start();
 122              		.loc 1 51 0
 123 0022 FFF7FEFF 		bl	Counter_2_Start
 124              	.LVL8:
  52:main.c        ****     LCD_Char_1_Start();
 125              		.loc 1 52 0
 126 0026 FFF7FEFF 		bl	LCD_Char_1_Start
 127              	.LVL9:
  53:main.c        ****     LCD_Char_1_DisplayOn();
 128              		.loc 1 53 0
 129 002a 0C20     		movs	r0, #12
 130 002c FFF7FEFF 		bl	LCD_Char_1_WriteControl
 131              	.LVL10:
  54:main.c        ****     LCD_Char_1_Init();
 132              		.loc 1 54 0
 133 0030 FFF7FEFF 		bl	LCD_Char_1_Init
 134              	.LVL11:
  55:main.c        ****     LCD_Char_1_Enable();
 135              		.loc 1 55 0
 136 0034 FFF7FEFF 		bl	LCD_Char_1_Enable
 137              	.LVL12:
  56:main.c        ****     LCD_Char_1_IsReady();
 138              		.loc 1 56 0
 139 0038 FFF7FEFF 		bl	LCD_Char_1_IsReady
 140              	.LVL13:
  57:main.c        ****     LCD_Char_1_Position(0,0); 
 141              		.loc 1 57 0
 142 003c 0021     		movs	r1, #0
 143 003e 0846     		mov	r0, r1
 144 0040 FFF7FEFF 		bl	LCD_Char_1_Position
 145              	.LVL14:
  58:main.c        ****     
  59:main.c        ****     //Initial reset to start counter
  60:main.c        ****     Control_Reset_Write (1);  
 146              		.loc 1 60 0
 147 0044 0120     		movs	r0, #1
 148 0046 FFF7FEFF 		bl	Control_Reset_Write
 149              	.LVL15:
  61:main.c        ****     
  62:main.c        ****     //Begin LED count down
  63:main.c        ****     LED_Reset_Write (1); 
 150              		.loc 1 63 0
 151 004a 0120     		movs	r0, #1
 152 004c FFF7FEFF 		bl	LED_Reset_Write
 153              	.LVL16:
  64:main.c        ****     
  65:main.c        ****     char print[12];
  66:main.c        ****     uint16_t distance = 0;
  67:main.c        ****     int i = 0;
  68:main.c        ****     
  69:main.c        ****     //Write 1 to trigger, start 10 us count
  70:main.c        ****     Control_Reg_1_Write (1);
 154              		.loc 1 70 0
 155 0050 0120     		movs	r0, #1
 156 0052 FFF7FEFF 		bl	Control_Reg_1_Write
 157              	.LVL17:
  71:main.c        ****     Control_Reset_Write (1); 
ARM GAS  C:\Users\narking\AppData\Local\Temp\ccTZXtqk.s 			page 5


 158              		.loc 1 71 0
 159 0056 0120     		movs	r0, #1
 160 0058 FFF7FEFF 		bl	Control_Reset_Write
 161              	.LVL18:
  72:main.c        **** 
  73:main.c        ****     // Print count and distance to LCD  
  74:main.c        ****         sprintf(print,"Hello");           
 162              		.loc 1 74 0
 163 005c 3E4B     		ldr	r3, .L12+8
 164 005e 93E80300 		ldmia	r3, {r0, r1}
 165 0062 0190     		str	r0, [sp, #4]
 166 0064 ADF80810 		strh	r1, [sp, #8]	@ movhi
  75:main.c        ****         LCD_Char_1_ClearDisplay();
 167              		.loc 1 75 0
 168 0068 0120     		movs	r0, #1
 169 006a FFF7FEFF 		bl	LCD_Char_1_WriteControl
 170              	.LVL19:
  76:main.c        ****         LCD_Char_1_IsReady();
 171              		.loc 1 76 0
 172 006e FFF7FEFF 		bl	LCD_Char_1_IsReady
 173              	.LVL20:
  77:main.c        ****         LCD_Char_1_Position(0,0);
 174              		.loc 1 77 0
 175 0072 0021     		movs	r1, #0
 176 0074 0846     		mov	r0, r1
 177 0076 FFF7FEFF 		bl	LCD_Char_1_Position
 178              	.LVL21:
  78:main.c        ****         LCD_Char_1_PrintString(print);
 179              		.loc 1 78 0
 180 007a 01A8     		add	r0, sp, #4
 181 007c FFF7FEFF 		bl	LCD_Char_1_PrintString
 182              	.LVL22:
  66:main.c        ****     int i = 0;
 183              		.loc 1 66 0
 184 0080 0025     		movs	r5, #0
 185              	.LVL23:
 186              	.L10:
 187              	.LBB2:
  79:main.c        ****     
  80:main.c        ****     
  81:main.c        ****     for(;;)
  82:main.c        ****     {
  83:main.c        ****         /* Place your application code here. */      
  84:main.c        ****               
  85:main.c        ****         
  86:main.c        ****         uint8_t count = Counter_2_ReadCounter();
 188              		.loc 1 86 0
 189 0082 FFF7FEFF 		bl	Counter_2_ReadCounter
 190              	.LVL24:
 191 0086 0446     		mov	r4, r0
 192              	.LVL25:
  87:main.c        ****         
  88:main.c        ****         if(intFlag == 1){
 193              		.loc 1 88 0
 194 0088 344B     		ldr	r3, .L12+12
 195 008a 5B88     		ldrh	r3, [r3, #2]
 196 008c 012B     		cmp	r3, #1
ARM GAS  C:\Users\narking\AppData\Local\Temp\ccTZXtqk.s 			page 6


 197 008e 4CD1     		bne	.L8
  89:main.c        ****         
  90:main.c        ****             i++;
  91:main.c        ****             
  92:main.c        ****             // Reset timer
  93:main.c        ****             Control_Timer_Reset_Write (1); 
 198              		.loc 1 93 0
 199 0090 0120     		movs	r0, #1
 200 0092 FFF7FEFF 		bl	Control_Timer_Reset_Write
 201              	.LVL26:
  94:main.c        ****             intFlag = 0;
 202              		.loc 1 94 0
 203 0096 314B     		ldr	r3, .L12+12
 204 0098 0022     		movs	r2, #0
 205 009a 5A80     		strh	r2, [r3, #2]	@ movhi
  95:main.c        ****             
  96:main.c        ****             // Calculate distance
  97:main.c        ****             distance = timerGlobal/150;
 206              		.loc 1 97 0
 207 009c 1B88     		ldrh	r3, [r3]
 208 009e 304D     		ldr	r5, .L12+16
 209              	.LVL27:
 210 00a0 A5FB0335 		umull	r3, r5, r5, r3
 211 00a4 2D09     		lsrs	r5, r5, #4
 212              	.LVL28:
  98:main.c        ****             
  99:main.c        ****             // Reset LED count if you're in the distance range
 100:main.c        ****             if(distance < LED_CUTOFF){
 213              		.loc 1 100 0
 214 00a6 632D     		cmp	r5, #99
 215 00a8 02D8     		bhi	.L9
 101:main.c        ****                 LED_Reset_Write (1); 
 216              		.loc 1 101 0
 217 00aa 0120     		movs	r0, #1
 218 00ac FFF7FEFF 		bl	LED_Reset_Write
 219              	.LVL29:
 220              	.L9:
 102:main.c        ****             }
 103:main.c        ****             
 104:main.c        ****             // Delay 500 milliseconds
 105:main.c        ****             //CyDelay(500);
 106:main.c        ****             
 107:main.c        ****             // Print count and distance to LCD  
 108:main.c        ****             sprintf(print,"Interrupt");           
 221              		.loc 1 108 0
 222 00b0 2C4A     		ldr	r2, .L12+20
 223 00b2 01AB     		add	r3, sp, #4
 224 00b4 07CA     		ldmia	r2, {r0, r1, r2}
 225 00b6 03C3     		stmia	r3!, {r0, r1}
 226 00b8 1A80     		strh	r2, [r3]	@ movhi
 109:main.c        ****             LCD_Char_1_ClearDisplay();
 227              		.loc 1 109 0
 228 00ba 0120     		movs	r0, #1
 229 00bc FFF7FEFF 		bl	LCD_Char_1_WriteControl
 230              	.LVL30:
 110:main.c        ****             LCD_Char_1_IsReady();
 231              		.loc 1 110 0
ARM GAS  C:\Users\narking\AppData\Local\Temp\ccTZXtqk.s 			page 7


 232 00c0 FFF7FEFF 		bl	LCD_Char_1_IsReady
 233              	.LVL31:
 111:main.c        ****             LCD_Char_1_Position(0,0);
 234              		.loc 1 111 0
 235 00c4 0021     		movs	r1, #0
 236 00c6 0846     		mov	r0, r1
 237 00c8 FFF7FEFF 		bl	LCD_Char_1_Position
 238              	.LVL32:
 112:main.c        ****             LCD_Char_1_PrintString(print);
 239              		.loc 1 112 0
 240 00cc 01A8     		add	r0, sp, #4
 241 00ce FFF7FEFF 		bl	LCD_Char_1_PrintString
 242              	.LVL33:
 113:main.c        ****             
 114:main.c        ****             // Enter sleep mode for 512 ms
 115:main.c        ****             Counter_1_Sleep();
 243              		.loc 1 115 0
 244 00d2 FFF7FEFF 		bl	Counter_1_Sleep
 245              	.LVL34:
 116:main.c        ****             Counter_2_Sleep();
 246              		.loc 1 116 0
 247 00d6 FFF7FEFF 		bl	Counter_2_Sleep
 248              	.LVL35:
 117:main.c        ****             Timer_1_Sleep();
 249              		.loc 1 117 0
 250 00da FFF7FEFF 		bl	Timer_1_Sleep
 251              	.LVL36:
 118:main.c        ****             CyPmSaveClocks();
 252              		.loc 1 118 0
 253 00de FFF7FEFF 		bl	CyPmSaveClocks
 254              	.LVL37:
 119:main.c        ****             CyPmSleep(PM_SLEEP_TIME_NONE, PM_SLEEP_SRC_PICU);
 255              		.loc 1 119 0
 256 00e2 4021     		movs	r1, #64
 257 00e4 0020     		movs	r0, #0
 258 00e6 FFF7FEFF 		bl	CyPmSleep
 259              	.LVL38:
 120:main.c        ****             CyPmRestoreClocks();
 260              		.loc 1 120 0
 261 00ea FFF7FEFF 		bl	CyPmRestoreClocks
 262              	.LVL39:
 121:main.c        ****             Counter_1_Wakeup();
 263              		.loc 1 121 0
 264 00ee FFF7FEFF 		bl	Counter_1_Wakeup
 265              	.LVL40:
 122:main.c        ****             Counter_2_Wakeup();
 266              		.loc 1 122 0
 267 00f2 FFF7FEFF 		bl	Counter_2_Wakeup
 268              	.LVL41:
 123:main.c        ****             Timer_1_Wakeup(); 
 269              		.loc 1 123 0
 270 00f6 FFF7FEFF 		bl	Timer_1_Wakeup
 271              	.LVL42:
 124:main.c        ****             
 125:main.c        ****             // Print count and distance to LCD  
 126:main.c        ****             sprintf(print,"Wake");           
 272              		.loc 1 126 0
ARM GAS  C:\Users\narking\AppData\Local\Temp\ccTZXtqk.s 			page 8


 273 00fa 1B4B     		ldr	r3, .L12+24
 274 00fc 93E80300 		ldmia	r3, {r0, r1}
 275 0100 0190     		str	r0, [sp, #4]
 276 0102 8DF80810 		strb	r1, [sp, #8]
 127:main.c        ****             LCD_Char_1_ClearDisplay();
 277              		.loc 1 127 0
 278 0106 0120     		movs	r0, #1
 279 0108 FFF7FEFF 		bl	LCD_Char_1_WriteControl
 280              	.LVL43:
 128:main.c        ****             LCD_Char_1_IsReady();
 281              		.loc 1 128 0
 282 010c FFF7FEFF 		bl	LCD_Char_1_IsReady
 283              	.LVL44:
 129:main.c        ****             LCD_Char_1_Position(0,0);
 284              		.loc 1 129 0
 285 0110 0021     		movs	r1, #0
 286 0112 0846     		mov	r0, r1
 287 0114 FFF7FEFF 		bl	LCD_Char_1_Position
 288              	.LVL45:
 130:main.c        ****             LCD_Char_1_PrintString(print);
 289              		.loc 1 130 0
 290 0118 01A8     		add	r0, sp, #4
 291 011a FFF7FEFF 		bl	LCD_Char_1_PrintString
 292              	.LVL46:
 131:main.c        ****             
 132:main.c        ****             // Write 1 to trigger, start 10 us count
 133:main.c        ****             Control_Reg_1_Write (1);
 293              		.loc 1 133 0
 294 011e 0120     		movs	r0, #1
 295 0120 FFF7FEFF 		bl	Control_Reg_1_Write
 296              	.LVL47:
 134:main.c        ****             Control_Reset_Write (1);    
 297              		.loc 1 134 0
 298 0124 0120     		movs	r0, #1
 299 0126 FFF7FEFF 		bl	Control_Reset_Write
 300              	.LVL48:
 301              	.L8:
 135:main.c        ****            
 136:main.c        ****         }
 137:main.c        ****         
 138:main.c        ****         // Print count and distance to LCD  
 139:main.c        ****         sprintf(print,"c = %u d = %u", count, distance);           
 302              		.loc 1 139 0
 303 012a 2B46     		mov	r3, r5
 304 012c 2246     		mov	r2, r4
 305 012e 0F49     		ldr	r1, .L12+28
 306 0130 01A8     		add	r0, sp, #4
 307 0132 FFF7FEFF 		bl	sprintf
 308              	.LVL49:
 140:main.c        ****         LCD_Char_1_ClearDisplay();
 309              		.loc 1 140 0
 310 0136 0120     		movs	r0, #1
 311 0138 FFF7FEFF 		bl	LCD_Char_1_WriteControl
 312              	.LVL50:
 141:main.c        ****         LCD_Char_1_IsReady();
 313              		.loc 1 141 0
 314 013c FFF7FEFF 		bl	LCD_Char_1_IsReady
ARM GAS  C:\Users\narking\AppData\Local\Temp\ccTZXtqk.s 			page 9


 315              	.LVL51:
 142:main.c        ****         LCD_Char_1_Position(0,0);
 316              		.loc 1 142 0
 317 0140 0021     		movs	r1, #0
 318 0142 0846     		mov	r0, r1
 319 0144 FFF7FEFF 		bl	LCD_Char_1_Position
 320              	.LVL52:
 143:main.c        ****         LCD_Char_1_PrintString(print);
 321              		.loc 1 143 0
 322 0148 01A8     		add	r0, sp, #4
 323 014a FFF7FEFF 		bl	LCD_Char_1_PrintString
 324              	.LVL53:
 325              	.LBE2:
 144:main.c        ****                
 145:main.c        ****     }
 326              		.loc 1 145 0
 327 014e 98E7     		b	.L10
 328              	.L13:
 329              		.align	2
 330              	.L12:
 331 0150 00000000 		.word	MyISR
 332 0154 00000000 		.word	Snooze
 333 0158 00000000 		.word	.LC0
 334 015c 00000000 		.word	.LANCHOR0
 335 0160 B5814E1B 		.word	458129845
 336 0164 08000000 		.word	.LC1
 337 0168 14000000 		.word	.LC2
 338 016c 1C000000 		.word	.LC3
 339              		.cfi_endproc
 340              	.LFE66:
 341              		.size	main, .-main
 342              		.global	intFlag
 343              		.global	timerGlobal
 344              		.section	.rodata.str1.4,"aMS",%progbits,1
 345              		.align	2
 346              	.LC0:
 347 0000 48656C6C 		.ascii	"Hello\000"
 347      6F00
 348 0006 0000     		.space	2
 349              	.LC1:
 350 0008 496E7465 		.ascii	"Interrupt\000"
 350      72727570 
 350      7400
 351 0012 0000     		.space	2
 352              	.LC2:
 353 0014 57616B65 		.ascii	"Wake\000"
 353      00
 354 0019 000000   		.space	3
 355              	.LC3:
 356 001c 63203D20 		.ascii	"c = %u d = %u\000"
 356      25752064 
 356      203D2025 
 356      7500
 357              		.bss
 358              		.align	1
 359              		.set	.LANCHOR0,. + 0
 360              		.type	timerGlobal, %object
ARM GAS  C:\Users\narking\AppData\Local\Temp\ccTZXtqk.s 			page 10


 361              		.size	timerGlobal, 2
 362              	timerGlobal:
 363 0000 0000     		.space	2
 364              		.type	intFlag, %object
 365              		.size	intFlag, 2
 366              	intFlag:
 367 0002 0000     		.space	2
 368              		.text
 369              	.Letext0:
 370              		.file 2 "c:\\program files (x86)\\cypress\\psoc creator\\4.2\\psoc creator\\import\\gnu\\arm\\5.4.
 371              		.file 3 "c:\\program files (x86)\\cypress\\psoc creator\\4.2\\psoc creator\\import\\gnu\\arm\\5.4.
 372              		.file 4 "Generated_Source\\PSoC5/core_cm3.h"
 373              		.file 5 "Generated_Source\\PSoC5/Timer_1.h"
 374              		.file 6 "Generated_Source\\PSoC5/SleepTimer_1.h"
 375              		.file 7 "Generated_Source\\PSoC5/Counter_2.h"
 376              		.file 8 "Generated_Source\\PSoC5/Control_Timer_Reset.h"
 377              		.file 9 "Generated_Source\\PSoC5/LED_Reset.h"
 378              		.file 10 "Generated_Source\\PSoC5/LCD_Char_1.h"
 379              		.file 11 "Generated_Source\\PSoC5/Counter_1.h"
 380              		.file 12 "Generated_Source\\PSoC5/cyPm.h"
 381              		.file 13 "Generated_Source\\PSoC5/Control_Reg_1.h"
 382              		.file 14 "Generated_Source\\PSoC5/Control_Reset.h"
 383              		.file 15 "c:\\program files (x86)\\cypress\\psoc creator\\4.2\\psoc creator\\import\\gnu\\arm\\5.4
 384              		.file 16 "Generated_Source\\PSoC5/isr_1.h"
 385              		.file 17 "Generated_Source\\PSoC5/isr_2.h"